(dp0
S'Zn'
p1
(lp2
(lp3
F3072.0599999999999
aF150.0
aa(lp4
F3075.9000000000001
aF120.0
aa(lp5
F3282.3299999999999
aF300.0
aa(lp6
F3302.5799999999999
aF250.0
aa(lp7
F3302.9400000000001
aF250.0
aa(lp8
F3345.02
aF500.0
aa(lp9
F3345.5700000000002
aF350.0
aa(lp10
F3345.9400000000001
aF30.0
aa(lp11
F4680.1400000000003
aF2800.0
aa(lp12
F4722.1499999999996
aF5000.0
aa(lp13
F4810.5299999999997
aF10000.0
aasS'Ar'
p14
(lp15
sS'Ne'
p16
(lp17
(lp18
F5852.4877999999999
aF1780.0
aa(lp19
F5881.8950000000004
aF765.0
aa(lp20
F6029.9967999999999
aF410.0
aa(lp21
F6074.3375999999998
aF1025.0
aa(lp22
F6096.1629999999996
aF1470.0
aa(lp23
F6143.0627000000004
aF2300.0
aa(lp24
F6163.5937000000004
aF910.0
aa(lp25
F6217.2812000000004
aF670.0
aa(lp26
F6266.4952000000003
aF1400.0
aa(lp27
F6304.7893000000004
aF510.0
aa(lp28
F6334.4276
aF1730.0
aa(lp29
F6382.9913999999999
aF1800.0
aa(lp30
F6402.2479999999996
aF3570.0
aa(lp31
F6506.5276999999996
aF1760.0
aa(lp32
F6532.8824000000004
aF765.0
aa(lp33
F6598.9528
aF810.0
aa(lp34
F6678.2766000000001
aF1100.0
aa(lp35
F6717.0429999999997
aF540.0
aasS'Hg'
p36
(lp37
(lp38
F3125.674
aF400.0
aa(lp39
F3131.5549999999998
aF360.0
aa(lp40
F3131.8440000000001
aF360.0
aa(lp41
F3650.1579999999999
aF8500.0
aa(lp42
F3654.8400000000001
aF1025.0
aa(lp43
F3662.8870000000002
aF400.0
aa(lp44
F3663.2840000000001
aF960.0
aa(lp45
F4046.5630000000001
aF10000.0
aa(lp46
F4077.8310000000001
aF700.0
aa(lp47
F4358.3270000000002
aF25000.0
aa(lp48
F5460.7349999999997
aF16000.0
aa(lp49
F5769.598
aF3500.0
aa(lp50
F5790.6629999999996
aF3500.0
aasS'Cd'
p51
(lp52
(lp53
F3261.0549999999998
aF23000.0
aa(lp54
F3403.652
aF2000.0
aa(lp55
F3466.1999999999998
aF3000.0
aa(lp56
F3467.6550000000002
aF5000.0
aa(lp57
F3610.5079999999998
aF8000.0
aa(lp58
F3612.873
aF6000.0
aa(lp59
F4662.3519999999999
aF200.0
aa(lp60
F4678.1490000000003
aF14000.0
aa(lp61
F4799.9120000000003
aF32000.0
aa(lp62
F5085.8220000000001
aF40000.0
aa(lp63
F5154.6599999999999
aF200.0
aas.