(dp0
S'Zn'
p1
(lp2
(lp3
F3072.0599999999999
aF150.0
aa(lp4
F3075.9000000000001
aF120.0
aa(lp5
F3282.3299999999999
aF300.0
aa(lp6
F3302.5799999999999
aF250.0
aa(lp7
F3302.9400000000001
aF250.0
aa(lp8
F3345.02
aF500.0
aa(lp9
F3345.5700000000002
aF350.0
aa(lp10
F3345.9400000000001
aF30.0
aa(lp11
F4680.1400000000003
aF2800.0
aa(lp12
F4722.1499999999996
aF5000.0
aa(lp13
F4810.5299999999997
aF10000.0
aasS'Hg'
p14
(lp15
(lp16
F3125.674
aF400.0
aa(lp17
F3131.5549999999998
aF360.0
aa(lp18
F3131.8440000000001
aF360.0
aa(lp19
F3650.1579999999999
aF8500.0
aa(lp20
F3654.8400000000001
aF1025.0
aa(lp21
F3662.8870000000002
aF400.0
aa(lp22
F3663.2840000000001
aF960.0
aa(lp23
F4046.5630000000001
aF10000.0
aa(lp24
F4077.8310000000001
aF700.0
aa(lp25
F4358.3270000000002
aF25000.0
aa(lp26
F5460.7349999999997
aF16000.0
aa(lp27
F5769.598
aF3500.0
aa(lp28
F5790.6629999999996
aF3500.0
aasS'Cd'
p29
(lp30
(lp31
F3261.0549999999998
aF23000.0
aa(lp32
F3403.652
aF2000.0
aa(lp33
F3466.1999999999998
aF3000.0
aa(lp34
F3467.6550000000002
aF5000.0
aa(lp35
F3610.5079999999998
aF8000.0
aa(lp36
F3612.873
aF6000.0
aa(lp37
F4662.3519999999999
aF200.0
aa(lp38
F4678.1490000000003
aF14000.0
aa(lp39
F4799.9120000000003
aF32000.0
aa(lp40
F5085.8220000000001
aF40000.0
aa(lp41
F5154.6599999999999
aF200.0
aas.