(dp0
S'Zn'
p1
(lp2
F3072.0599999999999
aF3282.3299999999999
aF3302.5799999999999
aF3345.02
aF4680.1400000000003
aF4722.1499999999996
aF4810.5299999999997
asS'Ar'
p3
(lp4
sS'Ne'
p5
(lp6
F5852.4877999999999
aF5881.8950000000004
aF6029.9967999999999
aF6074.3375999999998
aF6096.1629999999996
aF6143.0627000000004
aF6163.5937000000004
aF6217.2812000000004
aF6266.4952000000003
aF6304.7893000000004
aF6334.4276
aF6382.9913999999999
aF6402.2479999999996
aF6506.5276999999996
aF6532.8824000000004
aF6598.9528
aF6678.2766000000001
aF6717.0429999999997
asS'Hg'
p7
(lp8
F3131.5549999999998
aF3650.1579999999999
aF3654.8400000000001
aF3663.2840000000001
aF4046.5630000000001
aF4077.8310000000001
aF4358.3270000000002
aF5460.7349999999997
aF5769.598
aF5790.6629999999996
asS'Cd'
p9
(lp10
F3261.0549999999998
aF3403.652
aF3467.6550000000002
aF3610.5079999999998
aF4662.3519999999999
aF4678.1490000000003
aF4799.9120000000003
aF5085.8220000000001
aF5154.6599999999999
as.