(dp0
S'Zn'
p1
(lp2
F3072.0599999999999
aF3282.3299999999999
aF3302.5799999999999
aF3345.02
aF4680.1400000000003
aF4722.1499999999996
aF4810.5299999999997
asS'Hg'
p3
(lp4
F3131.5549999999998
aF3650.1579999999999
aF3654.8400000000001
aF3663.2840000000001
aF4046.5630000000001
aF4077.8310000000001
aF4358.3270000000002
aF5460.7349999999997
aF5769.598
aF5790.6629999999996
asS'Cd'
p5
(lp6
F3261.0549999999998
aF3403.652
aF3467.6550000000002
aF3610.5079999999998
aF4662.3519999999999
aF4678.1490000000003
aF4799.9120000000003
aF5085.8220000000001
aF5154.6599999999999
as.
