(dp0
S'Cd'
p1
(lp2
F3080.8220000000001
aF3082.5929999999998
aF3133.1669999999999
aF3252.5239999999999
aF3261.0549999999998
aF3403.652
aF3466.1999999999998
aF3467.6550000000002
aF3499.9520000000002
aF3610.5079999999998
aF3612.873
aF3614.453
aF3649.558
aF3981.9259999999999
aF4140.5
aF4306.6719999999996
aF4412.9889999999996
aF4662.3519999999999
aF4678.1490000000003
aF4799.9120000000003
aF5085.8220000000001
aF5154.6599999999999
aF6099.1419999999998
aF6111.4899999999998
aF6325.1660000000002
aF6330.0129999999999
aF6438.4700000000003
aF6778.116
aF7345.6700000000001
asS'Zn'
p3
(lp4
F3018.3600000000001
aF3035.7800000000002
aF3072.0599999999999
aF3075.9000000000001
aF3282.3299999999999
aF3302.5799999999999
aF3302.9400000000001
aF3345.02
aF3345.5700000000002
aF3345.9400000000001
aF3799.0
aF3883.3400000000001
aF3965.4299999999998
aF4113.21
aF4292.8800000000001
aF4298.3299999999999
aF4629.8100000000004
aF4680.1400000000003
aF4722.1499999999996
aF4810.5299999999997
aF5068.6599999999999
aF5069.5799999999999
aF5181.9799999999996
aF5308.6499999999996
aF5310.2399999999998
aF5311.0200000000004
aF5772.1000000000004
aF5775.5
aF5777.1099999999997
aF6237.8999999999996
aF6239.1700000000001
aF6362.3400000000001
aF6479.1800000000003
aF6928.3199999999997
aF6938.4700000000003
aF6943.1999999999998
aF7799.3599999999997
asS'Ar'
p5
(lp6
F6965.4300000000003
aF7067.2169999999996
aF7147.0410000000002
aF7272.9350000000004
aF7383.9790000000003
aF7503.8680000000004
aF7514.6509999999998
aF7635.1059999999998
aF7723.7600000000002
aF7948.1750000000002
aF8006.1559999999999
aF8014.7849999999999
aF8103.692
aF8115.3109999999997
aF8408.2090000000007
aF8424.6470000000008
aF8521.4429999999993
aF8667.9449999999997
aF9122.9660000000003
aF9224.4950000000008
aF9657.7839999999997
aF9784.5010000000002
aF10470.51
asS'Hg'
p7
(lp8
F3125.6700000000001
aF3131.6999999999998
aF3341.48
aF3650.1529999999998
aF3654.8400000000001
aF3663.279
aF4046.5630000000001
aF4077.8310000000001
aF4358.3270000000002
aF4916.0680000000002
aF5460.7349999999997
aF5769.598
aF5790.6629999999996
asS'Ne'
p9
(lp10
F5852.4880000000003
aF5881.8950000000004
aF5944.8339999999998
aF5975.5339999999997
aF6029.9970000000003
aF6074.3370000000004
aF6096.1629999999996
aF6128.4499999999998
aF6143.0619999999999
aF6163.5940000000001
aF6217.2809999999999
aF6266.4949999999999
aF6304.7889999999998
aF6334.4279999999999
aF6382.991
aF6402.2460000000001
aF6506.5280000000002
aF6532.8819999999996
aF6598.9530000000004
aF6652.0919999999996
aF6678.2759999999998
aF6717.0429999999997
aF6929.4669999999996
aF7024.0500000000002
aF7032.4129999999996
aF7173.9380000000001
aF7245.1660000000002
aF7438.8980000000001
aF7488.8710000000001
aF7535.7740000000003
aF7544.0439999999999
aF7943.1800000000003
aF8082.4570000000003
aF8136.4059999999999
aF8300.3240000000005
aF8377.6059999999998
aF8418.4259999999995
aF8495.3590000000004
aF8591.2579999999998
aF8634.6470000000008
aF8654.384
aF8853.8670000000002
aF8865.7559999999994
aF8919.4989999999998
aF8988.5799999999999
aF9148.6800000000003
aF9201.7600000000002
aF9300.8500000000004
aF9313.9799999999996
aF9326.5200000000004
aF9354.2180000000008
aF9425.3799999999992
aF9459.2099999999991
aF9486.6800000000003
aF9534.1669999999995
aF9547.3999999999996
aF9665.4240000000009
as.